target datalayout = "e-m:e-p270:32:32-p271:32:32-p272:64:64-i64:64-i128:128-f80:128-n8:16:32:64-S128"
target triple = "x86_64-pc-linux-gnu"

%struct.JsonSemAction = type { ptr, ptr, ptr, ptr, ptr, ptr, ptr, ptr, ptr, ptr }
%struct.JsonLexContext = type { ptr, i64, i32, ptr, ptr, ptr, i8, i32, i32, i32, i32, ptr, ptr, ptr, i8, ptr, ptr }
%struct.PQExpBufferData = type { ptr, i64, i64 }

; Function Attrs: nounwind uwtable
define internal i32 @report_parse_error(i32 noundef %0, ptr noundef %1) #1 {
  %3 = alloca i32, align 4
  %4 = alloca i32, align 4
  %5 = alloca ptr, align 8
  store i32 %0, ptr %4, align 4
  store ptr %1, ptr %5, align 8
  %6 = load ptr, ptr %5, align 8
  %7 = getelementptr inbounds nuw %struct.JsonLexContext, ptr %6, i32 0, i32 3
  %8 = load ptr, ptr %7, align 8
  %9 = icmp eq ptr %8, null
  br i1 %9, label %15, label %10

10:                                               ; preds = %2
  %11 = load ptr, ptr %5, align 8
  %12 = getelementptr inbounds nuw %struct.JsonLexContext, ptr %11, i32 0, i32 7
  %13 = load i32, ptr %12, align 4
  %14 = icmp eq i32 %13, 12
  br i1 %14, label %15, label %16

15:                                               ; preds = %10, %2
  store i32 11, ptr %3, align 4
  br label %28

16:                                               ; preds = %10
  %17 = load i32, ptr %4, align 4
  switch i32 %17, label %27 [
    i32 8, label %18
    i32 0, label %19
    i32 1, label %20
    i32 2, label %21
    i32 3, label %22
    i32 4, label %23
    i32 5, label %24
    i32 6, label %25
    i32 7, label %26
  ]

18:                                               ; preds = %16
  store i32 9, ptr %3, align 4
  br label %28

19:                                               ; preds = %16
  store i32 10, ptr %3, align 4
  br label %28

20:                                               ; preds = %16
  store i32 14, ptr %3, align 4
  br label %28

21:                                               ; preds = %16
  store i32 6, ptr %3, align 4
  br label %28

22:                                               ; preds = %16
  store i32 7, ptr %3, align 4
  br label %28

23:                                               ; preds = %16
  store i32 12, ptr %3, align 4
  br label %28

24:                                               ; preds = %16
  store i32 8, ptr %3, align 4
  br label %28

25:                                               ; preds = %16
  store i32 13, ptr %3, align 4
  br label %28

26:                                               ; preds = %16
  store i32 14, ptr %3, align 4
  br label %28

27:                                               ; preds = %16
  store i32 0, ptr %3, align 4
  br label %28

28:                                               ; preds = %27, %26, %25, %24, %23, %22, %21, %20, %19, %18, %15
  %29 = load i32, ptr %3, align 4
  ret i32 %29
}

; Function Attrs: inlinehint nounwind uwtable
define internal i32 @lex_peek(ptr noundef %0) #0 {
  %2 = alloca ptr, align 8
  store ptr %0, ptr %2, align 8
  %3 = load ptr, ptr %2, align 8
  %4 = getelementptr inbounds nuw %struct.JsonLexContext, ptr %3, i32 0, i32 7
  %5 = load i32, ptr %4, align 4
  ret i32 %5
}

; Function Attrs: inlinehint nounwind uwtable
define internal i32 @parse_scalar(ptr noundef %0, ptr noundef %1) #0 {
  %3 = alloca i32, align 4
  %4 = alloca ptr, align 8
  %5 = alloca ptr, align 8
  %6 = alloca ptr, align 8
  %7 = alloca ptr, align 8
  %8 = alloca i32, align 4
  %9 = alloca i32, align 4
  %10 = alloca i32, align 4
  %11 = alloca i32, align 4
  store ptr %0, ptr %4, align 8
  store ptr %1, ptr %5, align 8
  call void @llvm.lifetime.start.p0(i64 8, ptr %6) #15
  store ptr null, ptr %6, align 8
  call void @llvm.lifetime.start.p0(i64 8, ptr %7) #15
  %12 = load ptr, ptr %5, align 8
  %13 = getelementptr inbounds nuw %struct.JsonSemAction, ptr %12, i32 0, i32 9
  %14 = load ptr, ptr %13, align 8
  store ptr %14, ptr %7, align 8
  call void @llvm.lifetime.start.p0(i64 4, ptr %8) #15
  %15 = load ptr, ptr %4, align 8
  %16 = call i32 @lex_peek(ptr noundef %15)
  store i32 %16, ptr %8, align 4
  call void @llvm.lifetime.start.p0(i64 4, ptr %9) #15
  %17 = load i32, ptr %8, align 4
  %18 = icmp ne i32 %17, 1
  br i1 %18, label %19, label %34

19:                                               ; preds = %2
  %20 = load i32, ptr %8, align 4
  %21 = icmp ne i32 %20, 2
  br i1 %21, label %22, label %34

22:                                               ; preds = %19
  %23 = load i32, ptr %8, align 4
  %24 = icmp ne i32 %23, 9
  br i1 %24, label %25, label %34

25:                                               ; preds = %22
  %26 = load i32, ptr %8, align 4
  %27 = icmp ne i32 %26, 10
  br i1 %27, label %28, label %34

28:                                               ; preds = %25
  %29 = load i32, ptr %8, align 4
  %30 = icmp ne i32 %29, 11
  br i1 %30, label %31, label %34

31:                                               ; preds = %28
  %32 = load ptr, ptr %4, align 8
  %33 = call i32 @report_parse_error(i32 noundef 0, ptr noundef %32)
  store i32 %33, ptr %3, align 4
  store i32 1, ptr %10, align 4
  br label %118

34:                                               ; preds = %28, %25, %22, %19, %2
  %35 = load ptr, ptr %7, align 8
  %36 = icmp eq ptr %35, null
  br i1 %36, label %37, label %40

37:                                               ; preds = %34
  %38 = load ptr, ptr %4, align 8
  %39 = call i32 @json_lex(ptr noundef %38)
  store i32 %39, ptr %3, align 4
  store i32 1, ptr %10, align 4
  br label %118

40:                                               ; preds = %34
  %41 = load ptr, ptr %4, align 8
  %42 = call i32 @lex_peek(ptr noundef %41)
  %43 = icmp eq i32 %42, 1
  br i1 %43, label %44, label %61

44:                                               ; preds = %40
  %45 = load ptr, ptr %4, align 8
  %46 = getelementptr inbounds nuw %struct.JsonLexContext, ptr %45, i32 0, i32 14
  %47 = load i8, ptr %46, align 8, !range !3, !noundef !4
  %48 = trunc i8 %47 to i1
  br i1 %48, label %49, label %60

49:                                               ; preds = %44
  %50 = load ptr, ptr %4, align 8
  %51 = getelementptr inbounds nuw %struct.JsonLexContext, ptr %50, i32 0, i32 15
  %52 = load ptr, ptr %51, align 8
  %53 = getelementptr inbounds nuw %struct.PQExpBufferData, ptr %52, i32 0, i32 0
  %54 = load ptr, ptr %53, align 8
  %55 = call noalias ptr @strdup(ptr noundef %54) #15
  store ptr %55, ptr %6, align 8
  %56 = load ptr, ptr %6, align 8
  %57 = icmp eq ptr %56, null
  br i1 %57, label %58, label %59

58:                                               ; preds = %49
  store i32 16, ptr %3, align 4
  store i32 1, ptr %10, align 4
  br label %118

59:                                               ; preds = %49
  br label %60

60:                                               ; preds = %59, %44
  br label %93

61:                                               ; preds = %40
  call void @llvm.lifetime.start.p0(i64 4, ptr %11) #15
  %62 = load ptr, ptr %4, align 8
  %63 = getelementptr inbounds nuw %struct.JsonLexContext, ptr %62, i32 0, i32 4
  %64 = load ptr, ptr %63, align 8
  %65 = load ptr, ptr %4, align 8
  %66 = getelementptr inbounds nuw %struct.JsonLexContext, ptr %65, i32 0, i32 3
  %67 = load ptr, ptr %66, align 8
  %68 = ptrtoint ptr %64 to i64
  %69 = ptrtoint ptr %67 to i64
  %70 = sub i64 %68, %69
  %71 = trunc i64 %70 to i32
  store i32 %71, ptr %11, align 4
  %72 = load i32, ptr %11, align 4
  %73 = add i32 %72, 1
  %74 = sext i32 %73 to i64
  %75 = call noalias ptr @malloc(i64 noundef %74) #17
  store ptr %75, ptr %6, align 8
  %76 = load ptr, ptr %6, align 8
  %77 = icmp eq ptr %76, null
  br i1 %77, label %78, label %79

78:                                               ; preds = %61
  store i32 16, ptr %3, align 4
  store i32 1, ptr %10, align 4
  br label %90

79:                                               ; preds = %61
  %80 = load ptr, ptr %6, align 8
  %81 = load ptr, ptr %4, align 8
  %82 = getelementptr inbounds nuw %struct.JsonLexContext, ptr %81, i32 0, i32 3
  %83 = load ptr, ptr %82, align 8
  %84 = load i32, ptr %11, align 4
  %85 = sext i32 %84 to i64
  call void @llvm.memcpy.p0.p0.i64(ptr align 1 %80, ptr align 1 %83, i64 %85, i1 false)
  %86 = load ptr, ptr %6, align 8
  %87 = load i32, ptr %11, align 4
  %88 = sext i32 %87 to i64
  %89 = getelementptr inbounds i8, ptr %86, i64 %88
  store i8 0, ptr %89, align 1
  store i32 0, ptr %10, align 4
  br label %90

90:                                               ; preds = %79, %78
  call void @llvm.lifetime.end.p0(i64 4, ptr %11) #15
  %91 = load i32, ptr %10, align 4
  switch i32 %91, label %118 [
    i32 0, label %92
  ]

92:                                               ; preds = %90
  br label %93

93:                                               ; preds = %92, %60
  %94 = load ptr, ptr %4, align 8
  %95 = call i32 @json_lex(ptr noundef %94)
  store i32 %95, ptr %9, align 4
  %96 = load i32, ptr %9, align 4
  %97 = icmp ne i32 %96, 0
  br i1 %97, label %98, label %101

98:                                               ; preds = %93
  %99 = load ptr, ptr %6, align 8
  call void @free(ptr noundef %99) #15
  %100 = load i32, ptr %9, align 4
  store i32 %100, ptr %3, align 4
  store i32 1, ptr %10, align 4
  br label %118

101:                                              ; preds = %93
  %102 = load ptr, ptr %7, align 8
  %103 = load ptr, ptr %5, align 8
  %104 = getelementptr inbounds nuw %struct.JsonSemAction, ptr %103, i32 0, i32 0
  %105 = load ptr, ptr %104, align 8
  %106 = load ptr, ptr %6, align 8
  %107 = load i32, ptr %8, align 4
  %108 = call i32 %102(ptr noundef %105, ptr noundef %106, i32 noundef %107)
  store i32 %108, ptr %9, align 4
  %109 = load ptr, ptr %4, align 8
  %110 = getelementptr inbounds nuw %struct.JsonLexContext, ptr %109, i32 0, i32 9
  %111 = load i32, ptr %110, align 4
  %112 = and i32 %111, 4
  %113 = icmp ne i32 %112, 0
  br i1 %113, label %114, label %116

114:                                              ; preds = %101
  %115 = load ptr, ptr %6, align 8
  call void @free(ptr noundef %115) #15
  br label %116

116:                                              ; preds = %114, %101
  %117 = load i32, ptr %9, align 4
  store i32 %117, ptr %3, align 4
  store i32 1, ptr %10, align 4
  br label %118

118:                                              ; preds = %116, %98, %90, %58, %37, %31
  call void @llvm.lifetime.end.p0(i64 4, ptr %9) #15
  call void @llvm.lifetime.end.p0(i64 4, ptr %8) #15
  call void @llvm.lifetime.end.p0(i64 8, ptr %7) #15
  call void @llvm.lifetime.end.p0(i64 8, ptr %6) #15
  %119 = load i32, ptr %3, align 4
  ret i32 %119
}