; Function Attrs: inlinehint nounwind uwtable
define internal fastcc i32 @parse_scalar(ptr noundef captures(address) %0, ptr noundef readonly captures(none) %1) unnamed_addr #4 {
  %3 = getelementptr inbounds nuw i8, ptr %1, i64 72
  %4 = load ptr, ptr %3, align 8
  %5 = getelementptr i8, ptr %0, i64 52
  %.val51 = load i32, ptr %5, align 4
  %6 = and i32 %.val51, -9
  %7 = add i32 %6, -3
  %or.cond5 = icmp ult i32 %7, -2
  %8 = icmp ne i32 %.val51, 11
  %or.cond7 = and i1 %8, %or.cond5
  br i1 %or.cond7, label %9, label %14

9:                                                ; preds = %2
  %10 = getelementptr inbounds nuw i8, ptr %0, i64 24
  %11 = load ptr, ptr %10, align 8
  %12 = icmp eq ptr %11, null
  %13 = icmp eq i32 %.val51, 12
  %or.cond = or i1 %13, %12
  %spec.select = select i1 %or.cond, i32 11, i32 10
  br label %.critedge

14:                                               ; preds = %2
  %15 = icmp eq ptr %4, null
  br i1 %15, label %16, label %18

16:                                               ; preds = %14
  %17 = tail call i32 @json_lex(ptr noundef nonnull %0)
  br label %.critedge

18:                                               ; preds = %14
  %19 = icmp eq i32 %.val51, 1
  br i1 %19, label %20, label %30

20:                                               ; preds = %18
  %21 = getelementptr inbounds nuw i8, ptr %0, i64 96
  %22 = load i8, ptr %21, align 8, !range !3, !noundef !4
  %23 = trunc nuw i8 %22 to i1
  br i1 %23, label %24, label %44

24:                                               ; preds = %20
  %25 = getelementptr inbounds nuw i8, ptr %0, i64 104
  %26 = load ptr, ptr %25, align 8
  %27 = load ptr, ptr %26, align 8
  %28 = tail call noalias ptr @strdup(ptr noundef %27) #16
  %29 = icmp eq ptr %28, null
  br i1 %29, label %.critedge, label %44

30:                                               ; preds = %18
  %31 = getelementptr inbounds nuw i8, ptr %0, i64 32
  %32 = load ptr, ptr %31, align 8
  %33 = getelementptr inbounds nuw i8, ptr %0, i64 24
  %34 = load ptr, ptr %33, align 8
  %35 = ptrtoint ptr %32 to i64
  %36 = ptrtoint ptr %34 to i64
  %37 = sub i64 %35, %36
  %38 = shl i64 %37, 32
  %sext = add i64 %38, 4294967296
  %39 = ashr exact i64 %sext, 32
  %40 = tail call noalias ptr @malloc(i64 noundef %39) #18
  %.not = icmp eq ptr %40, null
  br i1 %.not, label %.critedge, label %41

41:                                               ; preds = %30
  %42 = ashr exact i64 %38, 32
  tail call void @llvm.memcpy.p0.p0.i64(ptr nonnull align 1 %40, ptr align 1 %34, i64 %42, i1 false)
  %43 = getelementptr inbounds i8, ptr %40, i64 %42
  store i8 0, ptr %43, align 1
  br label %44

44:                                               ; preds = %41, %20, %24
  %.043 = phi ptr [ %28, %24 ], [ null, %20 ], [ %40, %41 ]
  %45 = tail call i32 @json_lex(ptr noundef nonnull %0)
  %.not49 = icmp eq i32 %45, 0
  br i1 %.not49, label %47, label %46

46:                                               ; preds = %44
  tail call void @free(ptr noundef %.043) #16
  br label %.critedge

47:                                               ; preds = %44
  %48 = load ptr, ptr %1, align 8
  %49 = tail call i32 %4(ptr noundef %48, ptr noundef %.043, i32 noundef %.val51) #16
  %50 = getelementptr inbounds nuw i8, ptr %0, i64 60
  %51 = load i32, ptr %50, align 4
  %52 = and i32 %51, 4
  %.not50 = icmp eq i32 %52, 0
  br i1 %.not50, label %.critedge, label %53

53:                                               ; preds = %47
  tail call void @free(ptr noundef %.043) #16
  br label %.critedge

.critedge:                                        ; preds = %9, %30, %47, %53, %24, %46, %16
  %.0 = phi i32 [ %17, %16 ], [ %45, %46 ], [ 16, %24 ], [ %49, %53 ], [ %49, %47 ], [ 16, %30 ], [ %spec.select, %9 ]
  ret i32 %.0
}